; Function Attrs: nofree norecurse nosync nounwind memory(readwrite, inaccessiblemem: none) uwtable
define internal void @ff_tx_fft256_ns_int32_c(ptr readnone captures(none) %0, ptr noundef initializes((0, 128)) %1, ptr noundef readonly captures(none) %2, i64 %3) #10 {
  tail call void @ff_tx_fft128_ns_int32_c(ptr poison, ptr noundef %1, ptr noundef %2, i64 poison)
  %5 = getelementptr inbounds nuw i8, ptr %1, i64 1024
  %6 = getelementptr inbounds nuw i8, ptr %2, i64 1024
  tail call void @ff_tx_fft16_ns_int32_c(ptr readnone poison, ptr noundef nonnull %5, ptr noundef nonnull readonly %6, i64 poison)
  %7 = getelementptr inbounds nuw i8, ptr %1, i64 1152
  %8 = getelementptr inbounds nuw i8, ptr %2, i64 1152
  tail call void @ff_tx_fft8_ns_int32_c(ptr readnone poison, ptr noundef nonnull %7, ptr noundef nonnull readonly %8, i64 poison)
  %9 = getelementptr inbounds nuw i8, ptr %1, i64 1216
  %10 = getelementptr inbounds nuw i8, ptr %2, i64 1216
  tail call void @ff_tx_fft8_ns_int32_c(ptr readnone poison, ptr noundef nonnull %9, ptr noundef nonnull readonly %10, i64 poison)
  tail call fastcc void @ff_tx_fft_sr_combine_int32_c(ptr noundef nonnull %5, ptr noundef nonnull @ff_tx_tab_32_int32, i32 noundef 4)
  %11 = getelementptr inbounds nuw i8, ptr %1, i64 1280
  %12 = getelementptr inbounds nuw i8, ptr %2, i64 1280
  tail call void @ff_tx_fft16_ns_int32_c(ptr readnone poison, ptr noundef nonnull %11, ptr noundef nonnull readonly %12, i64 poison)
  %13 = getelementptr inbounds nuw i8, ptr %1, i64 1408
  %14 = getelementptr inbounds nuw i8, ptr %2, i64 1408
  tail call void @ff_tx_fft16_ns_int32_c(ptr readnone poison, ptr noundef nonnull %13, ptr noundef nonnull readonly %14, i64 poison)
  tail call fastcc void @ff_tx_fft_sr_combine_int32_c(ptr noundef nonnull %5, ptr noundef nonnull @ff_tx_tab_64_int32, i32 noundef 8)
  %15 = getelementptr inbounds nuw i8, ptr %1, i64 1536
  %16 = getelementptr inbounds nuw i8, ptr %2, i64 1536
  tail call void @ff_tx_fft16_ns_int32_c(ptr readnone poison, ptr noundef nonnull %15, ptr noundef nonnull readonly %16, i64 poison)
  %17 = getelementptr inbounds nuw i8, ptr %1, i64 1664
  %18 = getelementptr inbounds nuw i8, ptr %2, i64 1664
  tail call void @ff_tx_fft8_ns_int32_c(ptr readnone poison, ptr noundef nonnull %17, ptr noundef nonnull readonly %18, i64 poison)
  %19 = getelementptr inbounds nuw i8, ptr %1, i64 1728
  %20 = getelementptr inbounds nuw i8, ptr %2, i64 1728
  tail call void @ff_tx_fft8_ns_int32_c(ptr readnone poison, ptr noundef nonnull %19, ptr noundef nonnull readonly %20, i64 poison)
  tail call fastcc void @ff_tx_fft_sr_combine_int32_c(ptr noundef nonnull %15, ptr noundef nonnull @ff_tx_tab_32_int32, i32 noundef 4)
  %21 = getelementptr inbounds nuw i8, ptr %1, i64 1792
  %22 = getelementptr inbounds nuw i8, ptr %2, i64 1792
  tail call void @ff_tx_fft16_ns_int32_c(ptr readnone poison, ptr noundef nonnull %21, ptr noundef nonnull readonly %22, i64 poison)
  %23 = getelementptr inbounds nuw i8, ptr %1, i64 1920
  %24 = getelementptr inbounds nuw i8, ptr %2, i64 1920
  tail call void @ff_tx_fft16_ns_int32_c(ptr readnone poison, ptr noundef nonnull %23, ptr noundef nonnull readonly %24, i64 poison)
  tail call fastcc void @ff_tx_fft_sr_combine_int32_c(ptr noundef nonnull %15, ptr noundef nonnull @ff_tx_tab_64_int32, i32 noundef 8)
  tail call fastcc void @ff_tx_fft_sr_combine_int32_c(ptr noundef %1, ptr noundef nonnull @ff_tx_tab_256_int32, i32 noundef 32)
  ret void
}